; Function Attrs: nounwind uwtable
define internal void @preferences_response_callback_idm2391(ptr noundef %0, i32 noundef %1, ptr noundef %2) #0 {
  %4 = tail call ptr @g_type_check_instance_cast(ptr noundef %0, i64 noundef 80) #12
  %5 = tail call ptr @g_object_get_data(ptr noundef %4, ptr noundef nonnull @.str) #12
  %6 = ptrtoint ptr %5 to i64
  %7 = and i64 %6, 4294967295
  %.not = icmp eq i64 %7, 0
  br i1 %.not, label %9, label %8

8:                                                ; preds = %3
  switch i32 %1, label %10 [
    i32 -1, label %20
    i32 -4, label %20
  ]

9:                                                ; preds = %3
  %.not12 = icmp eq i32 %1, -4
  br i1 %.not12, label %10, label %20

10:                                               ; preds = %8, %9
  %11 = tail call i64 @gtk_widget_get_type() #13
  %12 = tail call ptr @g_type_check_instance_cast(ptr noundef %0, i64 noundef %11) #12
  tail call void @gtk_widget_set_can_focus(ptr noundef %12, i32 noundef 1) #12
  %13 = tail call ptr @g_type_check_instance_cast(ptr noundef %0, i64 noundef %11) #12
  tail call void @gtk_widget_grab_focus(ptr noundef %13) #12
  %14 = tail call ptr @dt_bauhaus_combobox_get_data(ptr noundef %2) #12
  %15 = tail call ptr @strchr(ptr noundef nonnull dereferenceable(1) %14, i32 noundef 93) #14
  %16 = ptrtoint ptr %15 to i64
  %17 = ptrtoint ptr %14 to i64
  %18 = sub i64 %16, %17
  %19 = tail call noalias ptr @g_strndup(ptr noundef nonnull %14, i64 noundef %18) #12
  tail call void @dt_conf_set_string(ptr noundef nonnull @.str.351, ptr noundef %19) #12
  tail call void @g_free(ptr noundef %19) #12
  br label %20

20:                                               ; preds = %9, %8, %8, %10
  ret void
}